; Function Attrs: mustprogress uwtable
define hidden void @_ZNK6Assimp7Blender9Structure7ConvertINS0_3TexEEEvRT_RKNS0_12FileDatabaseE(ptr noundef nonnull align 8 dereferenceable(120) %0, ptr noundef nonnull align 8 dereferenceable(1088) initializes((1064, 1072)) %1, ptr noundef nonnull align 8 dereferenceable(232) %2) local_unnamed_addr #0 align 2 personality ptr @__gxx_personality_v0 {
  %4 = alloca i16, align 2
  %5 = alloca i32, align 4
  call void @llvm.lifetime.start.p0(i64 2, ptr nonnull %4) #23
  store i16 0, ptr %4, align 2
  call void @_ZNK6Assimp7Blender9Structure9ReadFieldILi0EsEEvRT0_PKcRKNS0_12FileDatabaseE(ptr noundef nonnull align 8 dereferenceable(120) %0, ptr noundef nonnull align 2 dereferenceable(2) %4, ptr noundef nonnull @.str.232, ptr noundef nonnull align 8 dereferenceable(232) %2)
  %6 = load i16, ptr %4, align 2
  %7 = sext i16 %6 to i32
  %8 = getelementptr inbounds nuw i8, ptr %1, i64 1064
  store i32 %7, ptr %8, align 8
  call void @llvm.lifetime.start.p0(i64 4, ptr nonnull %5) #23
  store i32 0, ptr %5, align 4
  call void @_ZNK6Assimp7Blender9Structure9ReadFieldILi2EiEEvRT0_PKcRKNS0_12FileDatabaseE(ptr noundef nonnull align 8 dereferenceable(120) %0, ptr noundef nonnull align 4 dereferenceable(4) %5, ptr noundef nonnull @.str.1, ptr noundef nonnull align 8 dereferenceable(232) %2)
  %9 = load i32, ptr %5, align 4
  %10 = getelementptr inbounds nuw i8, ptr %1, i64 1068
  store i32 %9, ptr %10, align 4
  %11 = getelementptr inbounds nuw i8, ptr %1, i64 1072
  %12 = call noundef zeroext i1 @_ZNK6Assimp7Blender9Structure12ReadFieldPtrILi1ESt10shared_ptrNS0_5ImageEEEbRT0_IT1_EPKcRKNS0_12FileDatabaseEb(ptr noundef nonnull align 8 dereferenceable(120) %0, ptr noundef nonnull align 8 dereferenceable(16) %11, ptr noundef nonnull @.str.233, ptr noundef nonnull align 8 dereferenceable(232) %2, i1 noundef zeroext false)
  %13 = getelementptr inbounds nuw i8, ptr %2, i64 128
  %14 = load ptr, ptr %13, align 8
  %15 = getelementptr inbounds nuw i8, ptr %0, i64 104
  %16 = load i64, ptr %15, align 8
  %17 = getelementptr inbounds nuw i8, ptr %14, i64 24
  %18 = load ptr, ptr %17, align 8
  %19 = getelementptr inbounds i8, ptr %18, i64 %16
  store ptr %19, ptr %17, align 8
  %20 = getelementptr inbounds nuw i8, ptr %14, i64 40
  %21 = load ptr, ptr %20, align 8
  %22 = icmp ugt ptr %19, %21
  br i1 %22, label %23, label %_ZN6Assimp12StreamReaderILb1ELb1EE6IncPtrEl.exit

23:                                               ; preds = %3
  %24 = call ptr @__cxa_allocate_exception(i64 16) #23
  invoke void @_ZN17DeadlyImportErrorC2EPKc(ptr noundef nonnull align 8 dereferenceable(16) %24, ptr noundef nonnull @.str.307)
          to label %25 unwind label %26

25:                                               ; preds = %23
  call void @__cxa_throw(ptr nonnull %24, ptr nonnull @_ZTI17DeadlyImportError, ptr nonnull @_ZNSt13runtime_errorD2Ev) #24
  unreachable

26:                                               ; preds = %23
  %27 = landingpad { ptr, i32 }
          cleanup
  call void @__cxa_free_exception(ptr nonnull %24) #23
  resume { ptr, i32 } %27

_ZN6Assimp12StreamReaderILb1ELb1EE6IncPtrEl.exit: ; preds = %3
  call void @llvm.lifetime.end.p0(i64 4, ptr nonnull %5) #23
  call void @llvm.lifetime.end.p0(i64 2, ptr nonnull %4) #23
  ret void
}